; Function Attrs: mustprogress uwtable
define dso_local void @_ZN4Luau20DataFlowGraphBuilder13visitTypeListENS_11AstTypeListE(ptr noundef nonnull align 8 dereferenceable(336) %0, ptr noundef readonly byval(%"struct.Luau::AstTypeList") align 8 captures(none) %1) local_unnamed_addr #2 align 2 {
  %3 = load ptr, ptr %1, align 8, !tbaa !405
  %4 = getelementptr inbounds nuw i8, ptr %1, i64 8
  %5 = load i64, ptr %4, align 8, !tbaa !407
  %6 = getelementptr inbounds nuw ptr, ptr %3, i64 %5
  %.not10 = icmp eq i64 %5, 0
  br i1 %.not10, label %._crit_edge, label %.lr.ph

._crit_edge:                                      ; preds = %.lr.ph, %2
  %7 = getelementptr inbounds nuw i8, ptr %1, i64 16
  %8 = load ptr, ptr %7, align 8, !tbaa !435
  %.not9 = icmp eq ptr %8, null
  br i1 %.not9, label %12, label %11

.lr.ph:                                           ; preds = %2, %.lr.ph
  %.011 = phi ptr [ %10, %.lr.ph ], [ %3, %2 ]
  %9 = load ptr, ptr %.011, align 8, !tbaa !381
  tail call void @_ZN4Luau20DataFlowGraphBuilder9visitTypeEPNS_7AstTypeE(ptr noundef nonnull align 8 dereferenceable(336) %0, ptr noundef %9)
  %10 = getelementptr inbounds nuw i8, ptr %.011, i64 8
  %.not = icmp eq ptr %10, %6
  br i1 %.not, label %._crit_edge, label %.lr.ph

11:                                               ; preds = %._crit_edge
  tail call void @_ZN4Luau20DataFlowGraphBuilder13visitTypePackEPNS_11AstTypePackE(ptr noundef nonnull align 8 dereferenceable(336) %0, ptr noundef nonnull %8)
  br label %12

12:                                               ; preds = %11, %._crit_edge
  ret void
}